; Function Attrs: mustprogress uwtable
define noundef ptr @_ZNK7rocksdb14ThreadLocalPtr3GetEv(ptr noundef nonnull readonly align 4 captures(none) dereferenceable(4) %0) local_unnamed_addr #0 align 2 personality ptr @__gxx_personality_v0 {
  %2 = load atomic i8, ptr @_ZGVZN7rocksdb14ThreadLocalPtr8InstanceEvE4inst acquire, align 8
  %3 = icmp eq i8 %2, 0
  br i1 %3, label %4, label %_ZN7rocksdb14ThreadLocalPtr8InstanceEv.exit, !prof !4

4:                                                ; preds = %1
  %5 = tail call i32 @__cxa_guard_acquire(ptr nonnull @_ZGVZN7rocksdb14ThreadLocalPtr8InstanceEvE4inst) #19
  %.not.i = icmp eq i32 %5, 0
  br i1 %.not.i, label %_ZN7rocksdb14ThreadLocalPtr8InstanceEv.exit, label %6

6:                                                ; preds = %4
  %7 = invoke noalias noundef nonnull dereferenceable(232) ptr @_Znwm(i64 noundef 232) #20
          to label %8 unwind label %10

8:                                                ; preds = %6
  invoke void @_ZN7rocksdb14ThreadLocalPtr10StaticMetaC1Ev(ptr noundef nonnull align 8 dereferenceable(228) %7)
          to label %9 unwind label %12

9:                                                ; preds = %8
  store ptr %7, ptr @_ZZN7rocksdb14ThreadLocalPtr8InstanceEvE4inst, align 8, !tbaa !5
  tail call void @__cxa_guard_release(ptr nonnull @_ZGVZN7rocksdb14ThreadLocalPtr8InstanceEvE4inst) #19
  br label %_ZN7rocksdb14ThreadLocalPtr8InstanceEv.exit

10:                                               ; preds = %6
  %11 = landingpad { ptr, i32 }
          cleanup
  br label %14

12:                                               ; preds = %8
  %13 = landingpad { ptr, i32 }
          cleanup
  tail call void @_ZdlPvm(ptr noundef nonnull %7, i64 noundef 232) #21
  br label %14

14:                                               ; preds = %12, %10
  %.pn.i = phi { ptr, i32 } [ %13, %12 ], [ %11, %10 ]
  tail call void @__cxa_guard_abort(ptr nonnull @_ZGVZN7rocksdb14ThreadLocalPtr8InstanceEvE4inst) #19
  resume { ptr, i32 } %.pn.i

_ZN7rocksdb14ThreadLocalPtr8InstanceEv.exit:      ; preds = %1, %4, %9
  %15 = load i32, ptr %0, align 4, !tbaa !94
  %16 = tail call noundef ptr @_ZN7rocksdb14ThreadLocalPtr10StaticMeta14GetThreadLocalEv()
  %17 = zext i32 %15 to i64
  %18 = getelementptr inbounds nuw i8, ptr %16, i64 8
  %19 = load ptr, ptr %18, align 8, !tbaa !70
  %20 = load ptr, ptr %16, align 8, !tbaa !38
  %21 = ptrtoint ptr %19 to i64
  %22 = ptrtoint ptr %20 to i64
  %23 = sub i64 %21, %22
  %24 = ashr exact i64 %23, 3
  %.not.i1 = icmp ugt i64 %24, %17
  br i1 %.not.i1, label %25, label %_ZNK7rocksdb14ThreadLocalPtr10StaticMeta3GetEj.exit, !prof !71

25:                                               ; preds = %_ZN7rocksdb14ThreadLocalPtr8InstanceEv.exit
  %26 = getelementptr inbounds nuw %"struct.rocksdb::Entry", ptr %20, i64 %17
  %27 = load atomic i64, ptr %26 acquire, align 8
  %.0.i.i.i = inttoptr i64 %27 to ptr
  br label %_ZNK7rocksdb14ThreadLocalPtr10StaticMeta3GetEj.exit

_ZNK7rocksdb14ThreadLocalPtr10StaticMeta3GetEj.exit: ; preds = %_ZN7rocksdb14ThreadLocalPtr8InstanceEv.exit, %25
  %.0.i = phi ptr [ %.0.i.i.i, %25 ], [ null, %_ZN7rocksdb14ThreadLocalPtr8InstanceEv.exit ]
  ret ptr %.0.i
}